
Memory Configuration

Name             Origin             Length             Attributes
*default*        0x0000000000000000 0xffffffffffffffff

Linker script and memory map

LOAD bootpack.o
LOAD dsctbl.o
LOAD graphics.o
LOAD int.o
LOAD naskfunc.o
LOAD font_8x16.o
                0x0000000000280000                . = 0x280000

.text           0x0000000000280000      0xb31
 *(.text)
 .text          0x0000000000280000       0xdf bootpack.o
                0x0000000000280000                HariMain
 .text          0x00000000002800df      0x1d5 dsctbl.o
                0x00000000002800df                init_gdtidt
                0x00000000002801f4                set_segmdesc
                0x000000000028026f                set_gatedesc
 .text          0x00000000002802b4      0x5ce graphics.o
                0x00000000002802b4                init_palette
                0x00000000002802d1                set_palette
                0x000000000028037d                boxfill8
                0x00000000002803cf                init_screen8
                0x00000000002805ec                putfont8
                0x00000000002806ee                putfonts8_asc
                0x000000000028073d                init_mouse_cursor8
                0x0000000000280813                putblock8_8
 .text          0x0000000000280882      0x1ee int.o
                0x0000000000280882                init_pic
                0x000000000028095d                inthandler21
                0x00000000002809c3                inthandler2c
                0x0000000000280a29                inthandler27
 .text          0x0000000000280a70       0xc1 naskfunc.o
                0x0000000000280a70                _io_hlt
                0x0000000000280a72                _io_cli
                0x0000000000280a74                _io_sti
                0x0000000000280a76                _io_stihlt
                0x0000000000280a79                _io_in8
                0x0000000000280a84                _io_in16
                0x0000000000280a90                _io_in32
                0x0000000000280a96                _io_out8
                0x0000000000280aa0                _io_out16
                0x0000000000280aac                _io_out32
                0x0000000000280ab6                _io_load_eflags
                0x0000000000280ab9                _io_store_eflags
                0x0000000000280ac0                _load_gdtr
                0x0000000000280ad0                _load_idtr
                0x0000000000280ae0                _asm_inthandler21
                0x0000000000280afb                _asm_inthandler27
                0x0000000000280b16                _asm_inthandler2c
 .text          0x0000000000280b31        0x0 font_8x16.o

.iplt           0x0000000000280b38        0x0
 .iplt          0x0000000000280b38        0x0 font_8x16.o

.rodata         0x0000000000280b40     0x1060
 .rodata        0x0000000000280b40       0x51 int.o
 *fill*         0x0000000000280b91        0xf 
 .rodata        0x0000000000280ba0     0x1000 font_8x16.o
                0x0000000000280ba0                fontdata_8x16

.note.gnu.property
                0x0000000000281ba0       0x1c
 .note.gnu.property
                0x0000000000281ba0       0x1c font_8x16.o

.rel.dyn        0x0000000000281bbc        0x0
 .rel.got       0x0000000000281bbc        0x0 font_8x16.o
 .rel.iplt      0x0000000000281bbc        0x0 font_8x16.o

.data           0x0000000000281bc0      0x140
 *(.data)
 .data          0x0000000000281bc0        0x0 bootpack.o
 .data          0x0000000000281bc0        0x0 dsctbl.o
 .data          0x0000000000281bc0      0x140 graphics.o
 .data          0x0000000000281d00        0x0 int.o
 .data          0x0000000000281d00        0x0 naskfunc.o
 .data          0x0000000000281d00        0x0 font_8x16.o

.got            0x0000000000281d00        0x0
 .got           0x0000000000281d00        0x0 font_8x16.o

.got.plt        0x0000000000281d00        0x0
 .got.plt       0x0000000000281d00        0x0 font_8x16.o

.igot.plt       0x0000000000281d00        0x0
 .igot.plt      0x0000000000281d00        0x0 font_8x16.o

.bss            0x0000000000281d00        0x0
 *(.bss)
 .bss           0x0000000000281d00        0x0 bootpack.o
 .bss           0x0000000000281d00        0x0 dsctbl.o
 .bss           0x0000000000281d00        0x0 graphics.o
 .bss           0x0000000000281d00        0x0 int.o
 .bss           0x0000000000281d00        0x0 naskfunc.o
 .bss           0x0000000000281d00        0x0 font_8x16.o
LOAD libc/libc.a
OUTPUT(kernel.elf elf32-i386)

.comment        0x0000000000000000       0x1a
 .comment       0x0000000000000000       0x1a bootpack.o
                                         0x1b (size before relaxing)
 .comment       0x000000000000001a       0x1b dsctbl.o
 .comment       0x000000000000001a       0x1b graphics.o
 .comment       0x000000000000001a       0x1b int.o
 .comment       0x000000000000001a       0x1b font_8x16.o

.note.GNU-stack
                0x0000000000000000        0x0
 .note.GNU-stack
                0x0000000000000000        0x0 bootpack.o
 .note.GNU-stack
                0x0000000000000000        0x0 dsctbl.o
 .note.GNU-stack
                0x0000000000000000        0x0 graphics.o
 .note.GNU-stack
                0x0000000000000000        0x0 int.o
 .note.GNU-stack
                0x0000000000000000        0x0 font_8x16.o
