Archive member included to satisfy reference by file (symbol)

libc/libc.a(sprintf.o)        bootpack.o (sprintf)

Allocating common symbols
Common symbol       size              file

mousedata0          0x4               mouse.o
keyfifo             0x4               keyboard.o
taskctl             0x4               mtask.o
timerctl            0x271c            timer.o
mousefifo           0x4               mouse.o
task_timer          0x4               mtask.o
keydata0            0x4               keyboard.o

Memory Configuration

Name             Origin             Length             Attributes
*default*        0x0000000000000000 0xffffffffffffffff

Linker script and memory map

LOAD bootpack.o
LOAD dsctbl.o
LOAD graphics.o
LOAD int.o
LOAD fifo.o
LOAD mouse.o
LOAD keyboard.o
LOAD memory.o
LOAD sheet.o
LOAD timer.o
LOAD mtask.o
LOAD naskfunc.o
LOAD font_8x16.o
                0x0000000000280000                . = 0x280000

.text           0x0000000000280000     0x368e
 *(.text)
 .text          0x0000000000280000      0xf04 bootpack.o
                0x0000000000280000                HariMain
                0x00000000002808c9                make_window8
                0x0000000000280ae7                putfonts8_asc_sht
                0x0000000000280b86                make_textbox8
                0x0000000000280d85                task_b_main
 .text          0x0000000000280f04      0x211 dsctbl.o
                0x0000000000280f04                init_gdtidt
                0x0000000000281055                set_segmdesc
                0x00000000002810d0                set_gatedesc
 .text          0x0000000000281115      0x5ce graphics.o
                0x0000000000281115                init_palette
                0x0000000000281132                set_palette
                0x00000000002811de                boxfill8
                0x0000000000281230                init_screen8
                0x000000000028144d                putfont8
                0x000000000028154f                putfonts8_asc
                0x000000000028159e                init_mouse_cursor8
                0x0000000000281674                putblock8_8
 .text          0x00000000002816e3      0x122 int.o
                0x00000000002816e3                init_pic
                0x00000000002817be                inthandler27
 .text          0x0000000000281805      0x171 fifo.o
                0x0000000000281805                fifo32_init
                0x000000000028184c                fifo32_put
                0x00000000002818f2                fifo32_get
                0x0000000000281961                fifo32_status
 .text          0x0000000000281976      0x1e4 mouse.o
                0x0000000000281976                inthandler2c
                0x00000000002819cd                enable_mouse
                0x0000000000281a1b                mouse_decode
 .text          0x0000000000281b5a       0xa6 keyboard.o
                0x0000000000281b5a                inthandler21
                0x0000000000281b9f                wait_KBC_sendready
                0x0000000000281bbf                init_keyboard
 .text          0x0000000000281c00      0x4b1 memory.o
                0x0000000000281c00                memtest
                0x0000000000281cb7                memman_init
                0x0000000000281ce4                memman_total
                0x0000000000281d1d                memman_alloc
                0x0000000000281e06                memman_free
                0x0000000000282056                memman_alloc_4k
                0x0000000000282082                memman_free_4k
 .text          0x00000000002820b1      0xa25 sheet.o
                0x00000000002820b1                shtctl_init
                0x0000000000282194                sheet_alloc
                0x000000000028220b                sheet_setbuf
                0x0000000000282234                sheet_refreshmap
                0x00000000002823e8                sheet_refreshsub
                0x00000000002825b4                sheet_updown
                0x000000000028292b                sheet_refresh
                0x000000000028299c                sheet_slide
                0x0000000000282aaf                sheet_free
 .text          0x0000000000282ad6      0x29a timer.o
                0x0000000000282ad6                init_pit
                0x0000000000282b7e                timer_alloc
                0x0000000000282be8                timer_free
                0x0000000000282bf8                timer_init
                0x0000000000282c10                timer_settime
                0x0000000000282cbf                inthandler20
 .text          0x0000000000282d70      0x3ca mtask.o
                0x0000000000282d70                task_init
                0x0000000000282e8c                task_alloc
                0x0000000000282f87                task_run
                0x0000000000282fb7                task_switch
                0x000000000028302f                task_sleep
 .text          0x000000000028313a      0x135 naskfunc.o
                0x000000000028313a                _io_hlt
                0x000000000028313c                _io_cli
                0x000000000028313e                _io_sti
                0x0000000000283140                _io_stihlt
                0x0000000000283143                _io_in8
                0x000000000028314e                _io_in16
                0x000000000028315a                _io_in32
                0x0000000000283160                _io_out8
                0x000000000028316a                _io_out16
                0x0000000000283176                _io_out32
                0x0000000000283180                _io_load_eflags
                0x0000000000283183                _io_store_eflags
                0x000000000028318a                _load_gdtr
                0x000000000028319a                _load_idtr
                0x00000000002831aa                _load_cr0
                0x00000000002831ae                _store_cr0
                0x00000000002831b6                _load_tr
                0x00000000002831bc                _asm_inthandler20
                0x00000000002831d7                _asm_inthandler21
                0x00000000002831f2                _asm_inthandler27
                0x000000000028320d                _asm_inthandler2c
                0x0000000000283228                _memtest_sub
                0x000000000028326a                _farjmp
 .text          0x000000000028326f        0x0 font_8x16.o
 .text          0x000000000028326f      0x41f libc/libc.a(sprintf.o)
                0x0000000000283557                sprintf

.iplt           0x0000000000283690        0x0
 .iplt          0x0000000000283690        0x0 libc/libc.a(sprintf.o)

.rodata         0x00000000002836a0     0x1080
 .rodata        0x00000000002836a0       0x55 bootpack.o
 .rodata        0x00000000002836f5       0x15 int.o
 *fill*         0x000000000028370a       0x16 
 .rodata        0x0000000000283720     0x1000 font_8x16.o
                0x0000000000283720                fontdata_8x16

.note.gnu.property
                0x0000000000284720       0x1c
 .note.gnu.property
                0x0000000000284720       0x1c libc/libc.a(sprintf.o)

.rel.dyn        0x000000000028473c        0x0
 .rel.got       0x000000000028473c        0x0 libc/libc.a(sprintf.o)
 .rel.iplt      0x000000000028473c        0x0 libc/libc.a(sprintf.o)
 .rel.text      0x000000000028473c        0x0 libc/libc.a(sprintf.o)

.data           0x0000000000284740      0x280
 *(.data)
 .data          0x0000000000284740      0x140 bootpack.o
 .data          0x0000000000284880        0x0 dsctbl.o
 .data          0x0000000000284880      0x140 graphics.o
 .data          0x00000000002849c0        0x0 int.o
 .data          0x00000000002849c0        0x0 fifo.o
 .data          0x00000000002849c0        0x0 mouse.o
 .data          0x00000000002849c0        0x0 keyboard.o
 .data          0x00000000002849c0        0x0 memory.o
 .data          0x00000000002849c0        0x0 sheet.o
 .data          0x00000000002849c0        0x0 timer.o
 .data          0x00000000002849c0        0x0 mtask.o
 .data          0x00000000002849c0        0x0 naskfunc.o
 .data          0x00000000002849c0        0x0 font_8x16.o
 .data          0x00000000002849c0        0x0 libc/libc.a(sprintf.o)

.got            0x00000000002849c0        0x0
 .got           0x00000000002849c0        0x0 libc/libc.a(sprintf.o)

.got.plt        0x00000000002849c0        0x0
 .got.plt       0x00000000002849c0        0x0 libc/libc.a(sprintf.o)

.igot.plt       0x00000000002849c0        0x0
 .igot.plt      0x00000000002849c0        0x0 libc/libc.a(sprintf.o)

.bss            0x00000000002849c0     0x2744
 *(.bss)
 .bss           0x00000000002849c0        0x0 bootpack.o
 .bss           0x00000000002849c0        0x0 dsctbl.o
 .bss           0x00000000002849c0        0x0 graphics.o
 .bss           0x00000000002849c0        0x0 int.o
 .bss           0x00000000002849c0        0x0 fifo.o
 .bss           0x00000000002849c0        0x0 mouse.o
 .bss           0x00000000002849c0        0x0 keyboard.o
 .bss           0x00000000002849c0        0x0 memory.o
 .bss           0x00000000002849c0        0x0 sheet.o
 .bss           0x00000000002849c0        0x0 timer.o
 .bss           0x00000000002849c0        0x0 mtask.o
 .bss           0x00000000002849c0        0x0 naskfunc.o
 .bss           0x00000000002849c0        0x0 font_8x16.o
 .bss           0x00000000002849c0        0x0 libc/libc.a(sprintf.o)
 COMMON         0x00000000002849c0        0x8 mouse.o
                0x00000000002849c0                mousedata0
                0x00000000002849c4                mousefifo
 COMMON         0x00000000002849c8        0x8 keyboard.o
                0x00000000002849c8                keyfifo
                0x00000000002849cc                keydata0
 *fill*         0x00000000002849d0       0x10 
 COMMON         0x00000000002849e0     0x271c timer.o
                0x00000000002849e0                timerctl
 COMMON         0x00000000002870fc        0x8 mtask.o
                0x00000000002870fc                taskctl
                0x0000000000287100                task_timer
LOAD libc/libc.a
OUTPUT(kernel.elf elf32-i386)

.comment        0x0000000000000000       0x1a
 .comment       0x0000000000000000       0x1a bootpack.o
                                         0x1b (size before relaxing)
 .comment       0x000000000000001a       0x1b dsctbl.o
 .comment       0x000000000000001a       0x1b graphics.o
 .comment       0x000000000000001a       0x1b int.o
 .comment       0x000000000000001a       0x1b fifo.o
 .comment       0x000000000000001a       0x1b mouse.o
 .comment       0x000000000000001a       0x1b keyboard.o
 .comment       0x000000000000001a       0x1b memory.o
 .comment       0x000000000000001a       0x1b sheet.o
 .comment       0x000000000000001a       0x1b timer.o
 .comment       0x000000000000001a       0x1b mtask.o
 .comment       0x000000000000001a       0x1b font_8x16.o
 .comment       0x000000000000001a       0x1b libc/libc.a(sprintf.o)

.note.GNU-stack
                0x0000000000000000        0x0
 .note.GNU-stack
                0x0000000000000000        0x0 bootpack.o
 .note.GNU-stack
                0x0000000000000000        0x0 dsctbl.o
 .note.GNU-stack
                0x0000000000000000        0x0 graphics.o
 .note.GNU-stack
                0x0000000000000000        0x0 int.o
 .note.GNU-stack
                0x0000000000000000        0x0 fifo.o
 .note.GNU-stack
                0x0000000000000000        0x0 mouse.o
 .note.GNU-stack
                0x0000000000000000        0x0 keyboard.o
 .note.GNU-stack
                0x0000000000000000        0x0 memory.o
 .note.GNU-stack
                0x0000000000000000        0x0 sheet.o
 .note.GNU-stack
                0x0000000000000000        0x0 timer.o
 .note.GNU-stack
                0x0000000000000000        0x0 mtask.o
 .note.GNU-stack
                0x0000000000000000        0x0 font_8x16.o
 .note.GNU-stack
                0x0000000000000000        0x0 libc/libc.a(sprintf.o)
